target datalayout = "e-m:e-p270:32:32-p271:32:32-p272:64:64-i64:64-i128:128-f80:128-n8:16:32:64-S128"
target triple = "x86_64-pc-linux-gnu"

%struct.rocksdb_snapshot_t = type { ptr }
%struct.rocksdb_transaction_t = type { ptr }

; Function Attrs: mustprogress uwtable
define ptr @rocksdb_transaction_get_snapshot(ptr noundef %0) #0 {
  %2 = alloca ptr, align 8
  %3 = alloca ptr, align 8
  store ptr %0, ptr %2, align 8, !tbaa !1256
  call void @llvm.lifetime.start.p0(i64 8, ptr %3) #24
  %4 = call noalias ptr @malloc(i64 noundef 8) #29
  store ptr %4, ptr %3, align 8, !tbaa !375
  %5 = load ptr, ptr %2, align 8, !tbaa !1256
  %6 = getelementptr inbounds nuw %struct.rocksdb_transaction_t, ptr %5, i32 0, i32 0
  %7 = load ptr, ptr %6, align 8, !tbaa !1258
  %8 = load ptr, ptr %7, align 8, !tbaa !129
  %9 = getelementptr inbounds ptr, ptr %8, i64 4
  %10 = load ptr, ptr %9, align 8
  %11 = call noundef ptr %10(ptr noundef nonnull align 8 dereferenceable(64) %7)
  %12 = load ptr, ptr %3, align 8, !tbaa !375
  %13 = getelementptr inbounds nuw %struct.rocksdb_snapshot_t, ptr %12, i32 0, i32 0
  store ptr %11, ptr %13, align 8, !tbaa !377
  %14 = load ptr, ptr %3, align 8, !tbaa !375
  call void @llvm.lifetime.end.p0(i64 8, ptr %3) #24
  ret ptr %14
}