; Function Attrs: mustprogress uwtable
define noundef ptr @rocksdb_transaction_get_snapshot(ptr noundef readonly captures(none) %0) local_unnamed_addr #0 {
  %2 = tail call noalias dereferenceable_or_null(8) ptr @malloc(i64 noundef 8) #48
  %3 = load ptr, ptr %0, align 8, !tbaa !1216
  %4 = load ptr, ptr %3, align 8, !tbaa !23
  %5 = getelementptr inbounds nuw i8, ptr %4, i64 32
  %6 = load ptr, ptr %5, align 8
  %7 = tail call noundef ptr %6(ptr noundef nonnull align 8 dereferenceable(64) %3)
  store ptr %7, ptr %2, align 8, !tbaa !342
  ret ptr %2
}